; Function Attrs: mustprogress nofree norecurse nosync nounwind willreturn memory(argmem: write) uwtable
define hidden void @_ZN6google8protobuf37EnumDescriptorProto_EnumReservedRangeC2EPNS0_5ArenaEb(ptr noundef nonnull writeonly align 8 captures(none) dereferenceable(32) initializes((0, 32)) %0, ptr noundef %1, i1 noundef zeroext %2) unnamed_addr #5 align 2 personality ptr @__gxx_personality_v0 {
_ZN6google8protobuf8internal7HasBitsILm1EEC2Ev.exit:
  %3 = getelementptr inbounds nuw i8, ptr %0, i64 8
  %4 = ptrtoint ptr %1 to i64
  %5 = or i64 %4, 2
  %6 = select i1 %2, i64 %5, i64 %4
  store i64 %6, ptr %3, align 8, !tbaa !8
  store ptr getelementptr inbounds nuw inrange(-16, 152) (i8, ptr @_ZTVN6google8protobuf37EnumDescriptorProto_EnumReservedRangeE, i64 16), ptr %0, align 8, !tbaa !11
  %.ptr = getelementptr inbounds nuw i8, ptr %0, i64 16
  tail call void @llvm.memset.p0.i64(ptr noundef nonnull align 8 dereferenceable(16) %.ptr, i8 0, i64 16, i1 false)
  ret void
}